target datalayout = "e-m:e-p270:32:32-p271:32:32-p272:64:64-i64:64-i128:128-f80:128-n8:16:32:64-S128"
target triple = "x86_64-pc-linux-gnu"

; Function Attrs: mustprogress uwtable
define dso_local void @_ZN12DFSOutputMgr10output_tabERSoi(ptr noundef nonnull align 8 dereferenceable(40) %0, ptr noundef nonnull align 8 dereferenceable(8) %1, i32 noundef %2) unnamed_addr #4 align 2 {
  %4 = alloca ptr, align 8
  %5 = alloca ptr, align 8
  %6 = alloca i32, align 4
  store ptr %0, ptr %4, align 8, !tbaa !4
  store ptr %1, ptr %5, align 8, !tbaa !21
  store i32 %2, ptr %6, align 4, !tbaa !15
  %7 = load ptr, ptr %4, align 8
  %8 = call noundef zeroext i1 @_ZN9CGOptions14compact_outputEv()
  br i1 %8, label %12, label %9

9:                                                ; preds = %3
  %10 = load ptr, ptr %5, align 8, !tbaa !21
  %11 = load i32, ptr %6, align 4, !tbaa !15
  call void @_ZN9OutputMgr10output_tabERSoi(ptr noundef nonnull align 8 dereferenceable(8) %7, ptr noundef nonnull align 8 dereferenceable(8) %10, i32 noundef %11)
  br label %12

12:                                               ; preds = %9, %3
  ret void
}